; Function Attrs: mustprogress uwtable
define hidden void @_ZN6google8protobuf8compiler3cpp24QualifiedFileLevelSymbolB5cxx11EPKNS0_14FileDescriptorESt17basic_string_viewIcSt11char_traitsIcEERKNS2_7OptionsE(ptr noalias sret(%"class.std::__cxx11::basic_string") align 8 %agg.result, ptr nocapture noundef readonly %file, i64 %name.coerce0, ptr %name.coerce1, ptr nocapture nonnull readnone align 8 %options) local_unnamed_addr #4 personality ptr @__gxx_personality_v0 {
entry:
  %ref.tmp = alloca %"class.absl::lts_20230802::AlphaNum", align 8
  %ref.tmp2 = alloca %"class.absl::lts_20230802::AlphaNum", align 8
  %ref.tmp3 = alloca %"class.absl::lts_20230802::AlphaNum", align 8
  %ref.tmp4 = alloca %"class.std::__cxx11::basic_string", align 8
  %ref.tmp5 = alloca %"class.absl::lts_20230802::AlphaNum", align 8
  %ref.tmp7 = alloca %"class.absl::lts_20230802::AlphaNum", align 8
  %package_.i = getelementptr inbounds i8, ptr %file, i64 16
  %0 = load ptr, ptr %package_.i, align 8
  %call1 = tail call noundef zeroext i1 @_ZNKSt7__cxx1112basic_stringIcSt11char_traitsIcESaIcEE5emptyEv(ptr noundef nonnull align 8 dereferenceable(32) %0) #26
  br i1 %call1, label %if.then, label %invoke.cont6

if.then:                                          ; preds = %entry
  store i64 2, ptr %ref.tmp, align 8
  %1 = getelementptr inbounds i8, ptr %ref.tmp, i64 8
  store ptr @.str.21, ptr %1, align 8
  store i64 %name.coerce0, ptr %ref.tmp2, align 8
  %pc.sroa.2.0.piece_.sroa_idx.i = getelementptr inbounds i8, ptr %ref.tmp2, i64 8
  store ptr %name.coerce1, ptr %pc.sroa.2.0.piece_.sroa_idx.i, align 8
  call void @_ZN4absl12lts_202308026StrCatB5cxx11ERKNS0_8AlphaNumES3_(ptr sret(%"class.std::__cxx11::basic_string") align 8 %agg.result, ptr noundef nonnull align 8 dereferenceable(48) %ref.tmp, ptr noundef nonnull align 8 dereferenceable(48) %ref.tmp2)
  br label %return

invoke.cont6:                                     ; preds = %entry
  %2 = load ptr, ptr %package_.i, align 8, !noalias !55
  %call1.i = tail call { i64, ptr } @_ZNKSt7__cxx1112basic_stringIcSt11char_traitsIcESaIcEEcvSt17basic_string_viewIcS2_EEv(ptr noundef nonnull align 8 dereferenceable(32) %2) #26, !noalias !55
  %3 = extractvalue { i64, ptr } %call1.i, 0
  %4 = extractvalue { i64, ptr } %call1.i, 1
  call void @_ZN6google8protobuf8compiler3cpp9NamespaceB5cxx11ESt17basic_string_viewIcSt11char_traitsIcEE(ptr nonnull sret(%"class.std::__cxx11::basic_string") align 8 %ref.tmp4, i64 %3, ptr %4)
  %call.i = call { i64, ptr } @_ZNKSt7__cxx1112basic_stringIcSt11char_traitsIcESaIcEEcvSt17basic_string_viewIcS2_EEv(ptr noundef nonnull align 8 dereferenceable(32) %ref.tmp4) #26
  %5 = extractvalue { i64, ptr } %call.i, 0
  store i64 %5, ptr %ref.tmp3, align 8
  %6 = getelementptr inbounds i8, ptr %ref.tmp3, i64 8
  %7 = extractvalue { i64, ptr } %call.i, 1
  store ptr %7, ptr %6, align 8
  store i64 2, ptr %ref.tmp5, align 8
  %8 = getelementptr inbounds i8, ptr %ref.tmp5, i64 8
  store ptr @.str.21, ptr %8, align 8
  store i64 %name.coerce0, ptr %ref.tmp7, align 8
  %pc.sroa.2.0.piece_.sroa_idx.i4 = getelementptr inbounds i8, ptr %ref.tmp7, i64 8
  store ptr %name.coerce1, ptr %pc.sroa.2.0.piece_.sroa_idx.i4, align 8
  invoke void @_ZN4absl12lts_202308026StrCatB5cxx11ERKNS0_8AlphaNumES3_S3_(ptr sret(%"class.std::__cxx11::basic_string") align 8 %agg.result, ptr noundef nonnull align 8 dereferenceable(48) %ref.tmp3, ptr noundef nonnull align 8 dereferenceable(48) %ref.tmp5, ptr noundef nonnull align 8 dereferenceable(48) %ref.tmp7)
          to label %invoke.cont10 unwind label %lpad

invoke.cont10:                                    ; preds = %invoke.cont6
  call void @_ZNSt7__cxx1112basic_stringIcSt11char_traitsIcESaIcEED1Ev(ptr noundef nonnull align 8 dereferenceable(32) %ref.tmp4) #26
  br label %return

lpad:                                             ; preds = %invoke.cont6
  %9 = landingpad { ptr, i32 }
          cleanup
  call void @_ZNSt7__cxx1112basic_stringIcSt11char_traitsIcESaIcEED1Ev(ptr noundef nonnull align 8 dereferenceable(32) %ref.tmp4) #26
  resume { ptr, i32 } %9

return:                                           ; preds = %invoke.cont10, %if.then
  ret void
}